(irigging
rigging
p0
(dp1
S'catchangle'
p2
F-0.93
sS'lscull'
p3
F2.655
sS'span'
p4
F1.6
sS'Nrowers'
p5
I1
sS'mb'
p6
F14.0
sS'roworscull'
p7
S'scull'
p8
sS'lin'
p9
F0.9
sS'_rigging__spread'
p10
F0.88
sS'bladelength'
p11
F0.46
sS'dragform'
p12
F0.98
sS'_rigging__bladearea'
p13
F0.0822
sb.