(irigging
rigging
p0
(dp1
S'catchangle'
p2
F-0.93
sS'lscull'
p3
F3.205
sS'span'
p4
F1.6
sS'Nrowers'
p5
I4
sS'mb'
p6
F50.0
sS'roworscull'
p7
S'row'
p8
sS'lin'
p9
F1.14
sS'_rigging__spread'
p10
F0.88
sS'bladelength'
p11
F0.545
sS'dragform'
p12
I1
sS'_rigging__bladearea'
p13
F0.1174
sb.